target datalayout = "e-m:e-p270:32:32-p271:32:32-p272:64:64-i64:64-i128:128-f80:128-n8:16:32:64-S128"
target triple = "x86_64-pc-linux-gnu"

%struct.mbedtls_chachapoly_context = type { %struct.mbedtls_chacha20_context, %struct.mbedtls_poly1305_context, i64, i64, i32, i32 }
%struct.mbedtls_chacha20_context = type { [16 x i32], [64 x i8], i64 }
%struct.mbedtls_poly1305_context = type { [4 x i32], [4 x i32], [5 x i32], [16 x i8], i64 }

; Function Attrs: nounwind uwtable
define hidden i32 @mbedtls_chachapoly_starts(ptr noundef %0, ptr noundef %1, i32 noundef %2) #0 {
  %4 = alloca ptr, align 8
  %5 = alloca ptr, align 8
  %6 = alloca i32, align 4
  %7 = alloca i32, align 4
  %8 = alloca [64 x i8], align 16
  store ptr %0, ptr %4, align 8, !tbaa !3
  store ptr %1, ptr %5, align 8, !tbaa !17
  store i32 %2, ptr %6, align 4, !tbaa !19
  call void @llvm.lifetime.start.p0(i64 4, ptr %7) #7
  store i32 -110, ptr %7, align 4, !tbaa !19
  call void @llvm.lifetime.start.p0(i64 64, ptr %8) #7
  %9 = load ptr, ptr %4, align 8, !tbaa !3
  %10 = getelementptr inbounds nuw %struct.mbedtls_chachapoly_context, ptr %9, i32 0, i32 0
  %11 = load ptr, ptr %5, align 8, !tbaa !17
  %12 = call i32 @mbedtls_chacha20_starts(ptr noundef %10, ptr noundef %11, i32 noundef 0)
  store i32 %12, ptr %7, align 4, !tbaa !19
  %13 = load i32, ptr %7, align 4, !tbaa !19
  %14 = icmp ne i32 %13, 0
  br i1 %14, label %15, label %16

15:                                               ; preds = %3
  br label %44

16:                                               ; preds = %3
  %17 = getelementptr inbounds [64 x i8], ptr %8, i64 0, i64 0
  call void @llvm.memset.p0.i64(ptr align 16 %17, i8 0, i64 64, i1 false)
  %18 = load ptr, ptr %4, align 8, !tbaa !3
  %19 = getelementptr inbounds nuw %struct.mbedtls_chachapoly_context, ptr %18, i32 0, i32 0
  %20 = getelementptr inbounds [64 x i8], ptr %8, i64 0, i64 0
  %21 = getelementptr inbounds [64 x i8], ptr %8, i64 0, i64 0
  %22 = call i32 @mbedtls_chacha20_update(ptr noundef %19, i64 noundef 64, ptr noundef %20, ptr noundef %21)
  store i32 %22, ptr %7, align 4, !tbaa !19
  %23 = load i32, ptr %7, align 4, !tbaa !19
  %24 = icmp ne i32 %23, 0
  br i1 %24, label %25, label %26

25:                                               ; preds = %16
  br label %44

26:                                               ; preds = %16
  %27 = load ptr, ptr %4, align 8, !tbaa !3
  %28 = getelementptr inbounds nuw %struct.mbedtls_chachapoly_context, ptr %27, i32 0, i32 1
  %29 = getelementptr inbounds [64 x i8], ptr %8, i64 0, i64 0
  %30 = call i32 @mbedtls_poly1305_starts(ptr noundef %28, ptr noundef %29)
  store i32 %30, ptr %7, align 4, !tbaa !19
  %31 = load i32, ptr %7, align 4, !tbaa !19
  %32 = icmp eq i32 %31, 0
  br i1 %32, label %33, label %43

33:                                               ; preds = %26
  %34 = load ptr, ptr %4, align 8, !tbaa !3
  %35 = getelementptr inbounds nuw %struct.mbedtls_chachapoly_context, ptr %34, i32 0, i32 2
  store i64 0, ptr %35, align 8, !tbaa !8
  %36 = load ptr, ptr %4, align 8, !tbaa !3
  %37 = getelementptr inbounds nuw %struct.mbedtls_chachapoly_context, ptr %36, i32 0, i32 3
  store i64 0, ptr %37, align 8, !tbaa !14
  %38 = load ptr, ptr %4, align 8, !tbaa !3
  %39 = getelementptr inbounds nuw %struct.mbedtls_chachapoly_context, ptr %38, i32 0, i32 4
  store i32 1, ptr %39, align 8, !tbaa !15
  %40 = load i32, ptr %6, align 4, !tbaa !19
  %41 = load ptr, ptr %4, align 8, !tbaa !3
  %42 = getelementptr inbounds nuw %struct.mbedtls_chachapoly_context, ptr %41, i32 0, i32 5
  store i32 %40, ptr %42, align 4, !tbaa !16
  br label %43

43:                                               ; preds = %33, %26
  br label %44

44:                                               ; preds = %43, %25, %15
  %45 = getelementptr inbounds [64 x i8], ptr %8, i64 0, i64 0
  call void @mbedtls_platform_zeroize(ptr noundef %45, i64 noundef 64)
  %46 = load i32, ptr %7, align 4, !tbaa !19
  call void @llvm.lifetime.end.p0(i64 64, ptr %8) #7
  call void @llvm.lifetime.end.p0(i64 4, ptr %7) #7
  ret i32 %46
}