; Function Attrs: nounwind uwtable
define hidden i32 @mbedtls_chachapoly_starts(ptr noundef %0, ptr noundef %1, i32 noundef %2) local_unnamed_addr #0 {
  %4 = alloca [64 x i8], align 16
  call void @llvm.lifetime.start.p0(i64 64, ptr nonnull %4) #7
  %5 = tail call i32 @mbedtls_chacha20_starts(ptr noundef %0, ptr noundef %1, i32 noundef 0) #7
  %.not = icmp eq i32 %5, 0
  br i1 %.not, label %6, label %16

6:                                                ; preds = %3
  call void @llvm.memset.p0.i64(ptr noundef nonnull align 16 dereferenceable(64) %4, i8 0, i64 64, i1 false)
  %7 = call i32 @mbedtls_chacha20_update(ptr noundef %0, i64 noundef 64, ptr noundef nonnull %4, ptr noundef nonnull %4) #7
  %.not15 = icmp eq i32 %7, 0
  br i1 %.not15, label %8, label %16

8:                                                ; preds = %6
  %9 = getelementptr inbounds nuw i8, ptr %0, i64 136
  %10 = call i32 @mbedtls_poly1305_starts(ptr noundef nonnull %9, ptr noundef nonnull %4) #7
  %11 = icmp eq i32 %10, 0
  br i1 %11, label %12, label %16

12:                                               ; preds = %8
  %13 = getelementptr inbounds nuw i8, ptr %0, i64 216
  %14 = getelementptr inbounds nuw i8, ptr %0, i64 232
  call void @llvm.memset.p0.i64(ptr noundef nonnull align 8 dereferenceable(16) %13, i8 0, i64 16, i1 false)
  store i32 1, ptr %14, align 8, !tbaa !3
  %15 = getelementptr inbounds nuw i8, ptr %0, i64 236
  store i32 %2, ptr %15, align 4, !tbaa !11
  br label %16

16:                                               ; preds = %8, %12, %6, %3
  %.0 = phi i32 [ %5, %3 ], [ %7, %6 ], [ 0, %12 ], [ %10, %8 ]
  call void @mbedtls_platform_zeroize(ptr noundef nonnull %4, i64 noundef 64) #7
  call void @llvm.lifetime.end.p0(i64 64, ptr nonnull %4) #7
  ret i32 %.0
}